target datalayout = "e-m:e-p270:32:32-p271:32:32-p272:64:64-i64:64-i128:128-f80:128-n8:16:32:64-S128"
target triple = "x86_64-unknown-linux-gnu"

%"class.icu_75::UnicodeString" = type { %"class.icu_75::Replaceable", %"union.icu_75::UnicodeString::StackBufferOrFields" }
%"class.icu_75::Replaceable" = type { %"class.icu_75::UObject" }
%"class.icu_75::UObject" = type { ptr }
%"union.icu_75::UnicodeString::StackBufferOrFields" = type { %struct.anon.0, [32 x i8] }
%struct.anon.0 = type { i16, i32, i32, ptr }
%struct.anon = type { i16, [27 x i16] }
%"class.icu_75::Char16Ptr" = type { ptr }

@_ZTIN6icu_758CollatorE = external constant ptr
@_ZTIN6icu_7517RuleBasedCollatorE = external constant ptr
@_ZTVN6icu_7513UnicodeStringE = external unnamed_addr constant { [13 x ptr] }, align 8
@_ZTVN6icu_7511ReplaceableE = external unnamed_addr constant { [13 x ptr] }, align 8
@_ZTVN6icu_757UObjectE = external unnamed_addr constant { [5 x ptr] }, align 8

; Function Attrs: mustprogress nounwind uwtable
define linkonce_odr void @_ZN6icu_757UObjectC2Ev(ptr noundef nonnull align 8 dereferenceable(8) %this) unnamed_addr #1 comdat align 2 {
entry:
  %this.addr = alloca ptr, align 8
  store ptr %this, ptr %this.addr, align 8
  %this1 = load ptr, ptr %this.addr, align 8
  store ptr getelementptr inbounds ({ [5 x ptr] }, ptr @_ZTVN6icu_757UObjectE, i32 0, i32 0, i32 2), ptr %this1, align 8
  ret void
}

; Function Attrs: mustprogress nounwind uwtable
define linkonce_odr noundef i32 @_ZNK6icu_7513UnicodeString14getShortLengthEv(ptr noundef nonnull align 8 dereferenceable(64) %this) #1 comdat align 2 {
entry:
  %this.addr = alloca ptr, align 8
  store ptr %this, ptr %this.addr, align 8
  %this1 = load ptr, ptr %this.addr, align 8
  %fUnion = getelementptr inbounds %"class.icu_75::UnicodeString", ptr %this1, i32 0, i32 1
  %fLengthAndFlags = getelementptr inbounds %struct.anon.0, ptr %fUnion, i32 0, i32 0
  %0 = load i16, ptr %fLengthAndFlags, align 8
  %conv = sext i16 %0 to i32
  %shr = ashr i32 %conv, 5
  ret i32 %shr
}

; Function Attrs: mustprogress nounwind uwtable
define linkonce_odr noundef signext i8 @_ZNK6icu_7513UnicodeString14hasShortLengthEv(ptr noundef nonnull align 8 dereferenceable(64) %this) #1 comdat align 2 {
entry:
  %this.addr = alloca ptr, align 8
  store ptr %this, ptr %this.addr, align 8
  %this1 = load ptr, ptr %this.addr, align 8
  %fUnion = getelementptr inbounds %"class.icu_75::UnicodeString", ptr %this1, i32 0, i32 1
  %fLengthAndFlags = getelementptr inbounds %struct.anon.0, ptr %fUnion, i32 0, i32 0
  %0 = load i16, ptr %fLengthAndFlags, align 8
  %conv = sext i16 %0 to i32
  %cmp = icmp sge i32 %conv, 0
  %conv2 = zext i1 %cmp to i8
  ret i8 %conv2
}

; Function Attrs: mustprogress nounwind uwtable
define linkonce_odr noundef ptr @_ZN6icu_758Collator13fromUCollatorEPK9UCollator(ptr noundef %uc) #1 comdat align 2 {
entry:
  %uc.addr = alloca ptr, align 8
  store ptr %uc, ptr %uc.addr, align 8
  %0 = load ptr, ptr %uc.addr, align 8
  ret ptr %0
}

; Function Attrs: mustprogress nounwind uwtable
define linkonce_odr void @_ZN6icu_7511ReplaceableC2Ev(ptr noundef nonnull align 8 dereferenceable(8) %this) unnamed_addr #1 comdat align 2 {
entry:
  %this.addr = alloca ptr, align 8
  store ptr %this, ptr %this.addr, align 8
  %this1 = load ptr, ptr %this.addr, align 8
  call void @_ZN6icu_757UObjectC2Ev(ptr noundef nonnull align 8 dereferenceable(8) %this1) #7
  store ptr getelementptr inbounds ({ [13 x ptr] }, ptr @_ZTVN6icu_7511ReplaceableE, i32 0, i32 0, i32 2), ptr %this1, align 8
  ret void
}

; Function Attrs: mustprogress uwtable
define linkonce_odr noundef i32 @_ZNK6icu_7513UnicodeString6lengthEv(ptr noundef nonnull align 8 dereferenceable(64) %this) #0 comdat align 2 {
entry:
  %this.addr = alloca ptr, align 8
  store ptr %this, ptr %this.addr, align 8
  %this1 = load ptr, ptr %this.addr, align 8
  %call = call noundef signext i8 @_ZNK6icu_7513UnicodeString14hasShortLengthEv(ptr noundef nonnull align 8 dereferenceable(64) %this1)
  %tobool = icmp ne i8 %call, 0
  br i1 %tobool, label %cond.true, label %cond.false

cond.true:                                        ; preds = %entry
  %call2 = call noundef i32 @_ZNK6icu_7513UnicodeString14getShortLengthEv(ptr noundef nonnull align 8 dereferenceable(64) %this1)
  br label %cond.end

cond.false:                                       ; preds = %entry
  %fUnion = getelementptr inbounds %"class.icu_75::UnicodeString", ptr %this1, i32 0, i32 1
  %fLength = getelementptr inbounds %struct.anon.0, ptr %fUnion, i32 0, i32 1
  %0 = load i32, ptr %fLength, align 4
  br label %cond.end

cond.end:                                         ; preds = %cond.false, %cond.true
  %cond = phi i32 [ %call2, %cond.true ], [ %0, %cond.false ]
  ret i32 %cond
}

; Function Attrs: mustprogress nounwind uwtable
define linkonce_odr void @_ZN6icu_759Char16PtrD2Ev(ptr noundef nonnull align 8 dereferenceable(8) %this) unnamed_addr #1 comdat align 2 {
entry:
  %this.addr = alloca ptr, align 8
  store ptr %this, ptr %this.addr, align 8
  %this1 = load ptr, ptr %this.addr, align 8
  %p_ = getelementptr inbounds %"class.icu_75::Char16Ptr", ptr %this1, i32 0, i32 0
  %0 = load ptr, ptr %p_, align 8
  call void asm sideeffect "", "rm,~{memory},~{dirflag},~{fpsr},~{flags}"(ptr %0) #7, !srcloc !10
  ret void
}

; Function Attrs: mustprogress nounwind uwtable
define linkonce_odr void @_ZN6icu_759Char16PtrC2EPDs(ptr noundef nonnull align 8 dereferenceable(8) %this, ptr noundef %p) unnamed_addr #1 comdat align 2 {
entry:
  %this.addr = alloca ptr, align 8
  %p.addr = alloca ptr, align 8
  store ptr %this, ptr %this.addr, align 8
  store ptr %p, ptr %p.addr, align 8
  %this1 = load ptr, ptr %this.addr, align 8
  %p_ = getelementptr inbounds %"class.icu_75::Char16Ptr", ptr %this1, i32 0, i32 0
  %0 = load ptr, ptr %p.addr, align 8
  store ptr %0, ptr %p_, align 8
  ret void
}

; Function Attrs: mustprogress uwtable
define linkonce_odr noundef ptr @_ZN6icu_7517RuleBasedCollator16rbcFromUCollatorEPK9UCollator(ptr noundef %uc) #0 comdat align 2 {
entry:
  %uc.addr = alloca ptr, align 8
  store ptr %uc, ptr %uc.addr, align 8
  %0 = load ptr, ptr %uc.addr, align 8
  %call = call noundef ptr @_ZN6icu_758Collator13fromUCollatorEPK9UCollator(ptr noundef %0)
  %1 = icmp eq ptr %call, null
  br i1 %1, label %dynamic_cast.null, label %dynamic_cast.notnull

dynamic_cast.notnull:                             ; preds = %entry
  %2 = call ptr @__dynamic_cast(ptr %call, ptr @_ZTIN6icu_758CollatorE, ptr @_ZTIN6icu_7517RuleBasedCollatorE, i64 0) #7
  br label %dynamic_cast.end

dynamic_cast.null:                                ; preds = %entry
  br label %dynamic_cast.end

dynamic_cast.end:                                 ; preds = %dynamic_cast.null, %dynamic_cast.notnull
  %3 = phi ptr [ %2, %dynamic_cast.notnull ], [ null, %dynamic_cast.null ]
  ret ptr %3
}

; Function Attrs: mustprogress uwtable
define linkonce_odr void @_ZN6icu_7513UnicodeStringC2Ev(ptr noundef nonnull align 8 dereferenceable(64) %this) unnamed_addr #0 comdat align 2 {
entry:
  %this.addr = alloca ptr, align 8
  store ptr %this, ptr %this.addr, align 8
  %this1 = load ptr, ptr %this.addr, align 8
  call void @_ZN6icu_7511ReplaceableC2Ev(ptr noundef nonnull align 8 dereferenceable(8) %this1)
  store ptr getelementptr inbounds ({ [13 x ptr] }, ptr @_ZTVN6icu_7513UnicodeStringE, i32 0, i32 0, i32 2), ptr %this1, align 8
  %fUnion2 = getelementptr inbounds %"class.icu_75::UnicodeString", ptr %this1, i32 0, i32 1
  %fLengthAndFlags = getelementptr inbounds %struct.anon, ptr %fUnion2, i32 0, i32 0
  store i16 2, ptr %fLengthAndFlags, align 8
  ret void
}

; Function Attrs: mustprogress uwtable
define i32 @ucol_getRulesEx_75(ptr noundef %coll, i32 noundef %delta, ptr noundef %buffer, i32 noundef %bufferLen) #0 personality ptr @__gxx_personality_v0 {
entry:
  %retval = alloca i32, align 4
  %coll.addr = alloca ptr, align 8
  %delta.addr = alloca i32, align 4
  %buffer.addr = alloca ptr, align 8
  %bufferLen.addr = alloca i32, align 4
  %rules = alloca %"class.icu_75::UnicodeString", align 8
  %rbc = alloca ptr, align 8
  %exn.slot = alloca ptr, align 8
  %ehselector.slot = alloca i32, align 4
  %errorCode = alloca i32, align 4
  %agg.tmp = alloca %"class.icu_75::Char16Ptr", align 8
  %cleanup.dest.slot = alloca i32, align 4
  store ptr %coll, ptr %coll.addr, align 8
  store i32 %delta, ptr %delta.addr, align 4
  store ptr %buffer, ptr %buffer.addr, align 8
  store i32 %bufferLen, ptr %bufferLen.addr, align 4
  call void @_ZN6icu_7513UnicodeStringC2Ev(ptr noundef nonnull align 8 dereferenceable(64) %rules)
  %0 = load ptr, ptr %coll.addr, align 8
  %call = invoke noundef ptr @_ZN6icu_7517RuleBasedCollator16rbcFromUCollatorEPK9UCollator(ptr noundef %0)
          to label %invoke.cont unwind label %lpad

invoke.cont:                                      ; preds = %entry
  store ptr %call, ptr %rbc, align 8
  %1 = load ptr, ptr %rbc, align 8
  %cmp = icmp ne ptr %1, null
  br i1 %cmp, label %if.then, label %lor.lhs.false

lor.lhs.false:                                    ; preds = %invoke.cont
  %2 = load ptr, ptr %coll.addr, align 8
  %cmp1 = icmp eq ptr %2, null
  br i1 %cmp1, label %if.then, label %if.end

if.then:                                          ; preds = %lor.lhs.false, %invoke.cont
  %3 = load ptr, ptr %rbc, align 8
  %4 = load i32, ptr %delta.addr, align 4
  invoke void @_ZNK6icu_7517RuleBasedCollator8getRulesE14UColRuleOptionRNS_13UnicodeStringE(ptr noundef nonnull align 8 dereferenceable(272) %3, i32 noundef %4, ptr noundef nonnull align 8 dereferenceable(64) %rules)
          to label %invoke.cont2 unwind label %lpad

invoke.cont2:                                     ; preds = %if.then
  br label %if.end

lpad:                                             ; preds = %if.else, %if.then5, %if.then, %entry
  %5 = landingpad { ptr, i32 }
          cleanup
  %6 = extractvalue { ptr, i32 } %5, 0
  store ptr %6, ptr %exn.slot, align 8
  %7 = extractvalue { ptr, i32 } %5, 1
  store i32 %7, ptr %ehselector.slot, align 4
  br label %ehcleanup

if.end:                                           ; preds = %invoke.cont2, %lor.lhs.false
  %8 = load ptr, ptr %buffer.addr, align 8
  %cmp3 = icmp ne ptr %8, null
  br i1 %cmp3, label %land.lhs.true, label %if.else

land.lhs.true:                                    ; preds = %if.end
  %9 = load i32, ptr %bufferLen.addr, align 4
  %cmp4 = icmp sgt i32 %9, 0
  br i1 %cmp4, label %if.then5, label %if.else

if.then5:                                         ; preds = %land.lhs.true
  store i32 0, ptr %errorCode, align 4
  %10 = load ptr, ptr %buffer.addr, align 8
  invoke void @_ZN6icu_759Char16PtrC2EPDs(ptr noundef nonnull align 8 dereferenceable(8) %agg.tmp, ptr noundef %10)
          to label %invoke.cont6 unwind label %lpad

invoke.cont6:                                     ; preds = %if.then5
  %11 = load i32, ptr %bufferLen.addr, align 4
  %call9 = invoke noundef i32 @_ZNK6icu_7513UnicodeString7extractENS_9Char16PtrEiR10UErrorCode(ptr noundef nonnull align 8 dereferenceable(64) %rules, ptr noundef %agg.tmp, i32 noundef %11, ptr noundef nonnull align 4 dereferenceable(4) %errorCode)
          to label %invoke.cont8 unwind label %lpad7

invoke.cont8:                                     ; preds = %invoke.cont6
  store i32 %call9, ptr %retval, align 4
  call void @_ZN6icu_759Char16PtrD2Ev(ptr noundef nonnull align 8 dereferenceable(8) %agg.tmp) #7
  store i32 1, ptr %cleanup.dest.slot, align 4
  br label %cleanup

lpad7:                                            ; preds = %invoke.cont6
  %12 = landingpad { ptr, i32 }
          cleanup
  %13 = extractvalue { ptr, i32 } %12, 0
  store ptr %13, ptr %exn.slot, align 8
  %14 = extractvalue { ptr, i32 } %12, 1
  store i32 %14, ptr %ehselector.slot, align 4
  call void @_ZN6icu_759Char16PtrD2Ev(ptr noundef nonnull align 8 dereferenceable(8) %agg.tmp) #7
  br label %ehcleanup

if.else:                                          ; preds = %land.lhs.true, %if.end
  %call11 = invoke noundef i32 @_ZNK6icu_7513UnicodeString6lengthEv(ptr noundef nonnull align 8 dereferenceable(64) %rules)
          to label %invoke.cont10 unwind label %lpad

invoke.cont10:                                    ; preds = %if.else
  store i32 %call11, ptr %retval, align 4
  store i32 1, ptr %cleanup.dest.slot, align 4
  br label %cleanup

cleanup:                                          ; preds = %invoke.cont10, %invoke.cont8
  call void @_ZN6icu_7513UnicodeStringD1Ev(ptr noundef nonnull align 8 dereferenceable(64) %rules) #7
  %15 = load i32, ptr %retval, align 4
  ret i32 %15

ehcleanup:                                        ; preds = %lpad7, %lpad
  call void @_ZN6icu_7513UnicodeStringD1Ev(ptr noundef nonnull align 8 dereferenceable(64) %rules) #7
  br label %eh.resume

eh.resume:                                        ; preds = %ehcleanup
  %exn = load ptr, ptr %exn.slot, align 8
  %sel = load i32, ptr %ehselector.slot, align 4
  %lpad.val = insertvalue { ptr, i32 } poison, ptr %exn, 0
  %lpad.val12 = insertvalue { ptr, i32 } %lpad.val, i32 %sel, 1
  resume { ptr, i32 } %lpad.val12
}