; Function Attrs: mustprogress uwtable
define i32 @ucol_getRulesEx_75(ptr noundef %coll, i32 noundef %delta, ptr noundef %buffer, i32 noundef %bufferLen) local_unnamed_addr #0 personality ptr @__gxx_personality_v0 {
entry:
  %rules = alloca %"class.icu_75::UnicodeString", align 8
  %errorCode = alloca i32, align 4
  %agg.tmp = alloca %"class.icu_75::Char16Ptr", align 8
  store ptr getelementptr inbounds ({ [13 x ptr] }, ptr @_ZTVN6icu_7513UnicodeStringE, i64 0, i32 0, i64 2), ptr %rules, align 8
  %fUnion2.i = getelementptr inbounds i8, ptr %rules, i64 8
  store i16 2, ptr %fUnion2.i, align 8
  %0 = icmp ne ptr %coll, null
  tail call void @llvm.assume(i1 %0)
  %1 = tail call ptr @__dynamic_cast(ptr nonnull %coll, ptr nonnull @_ZTIN6icu_758CollatorE, ptr nonnull @_ZTIN6icu_7517RuleBasedCollatorE, i64 0) #10
  %cmp.not = icmp eq ptr %1, null
  br i1 %cmp.not, label %if.end, label %if.then

if.then:                                          ; preds = %entry
  invoke void @_ZNK6icu_7517RuleBasedCollator8getRulesE14UColRuleOptionRNS_13UnicodeStringE(ptr noundef nonnull align 8 dereferenceable(272) %1, i32 noundef %delta, ptr noundef nonnull align 8 dereferenceable(64) %rules)
          to label %if.end unwind label %lpad

lpad:                                             ; preds = %if.then
  %2 = landingpad { ptr, i32 }
          cleanup
  br label %ehcleanup

if.end:                                           ; preds = %if.then, %entry
  %cmp3 = icmp ne ptr %buffer, null
  %cmp4 = icmp sgt i32 %bufferLen, 0
  %or.cond1 = and i1 %cmp3, %cmp4
  br i1 %or.cond1, label %if.then5, label %if.else

if.then5:                                         ; preds = %if.end
  store i32 0, ptr %errorCode, align 4
  store ptr %buffer, ptr %agg.tmp, align 8
  %call9 = invoke noundef i32 @_ZNK6icu_7513UnicodeString7extractENS_9Char16PtrEiR10UErrorCode(ptr noundef nonnull align 8 dereferenceable(64) %rules, ptr noundef nonnull %agg.tmp, i32 noundef %bufferLen, ptr noundef nonnull align 4 dereferenceable(4) %errorCode)
          to label %invoke.cont8 unwind label %lpad7

invoke.cont8:                                     ; preds = %if.then5
  %3 = load ptr, ptr %agg.tmp, align 8
  call void asm sideeffect "", "rm,~{memory},~{dirflag},~{fpsr},~{flags}"(ptr %3) #10, !srcloc !10
  br label %cleanup

lpad7:                                            ; preds = %if.then5
  %4 = landingpad { ptr, i32 }
          cleanup
  %5 = load ptr, ptr %agg.tmp, align 8
  call void asm sideeffect "", "rm,~{memory},~{dirflag},~{fpsr},~{flags}"(ptr %5) #10, !srcloc !10
  br label %ehcleanup

if.else:                                          ; preds = %if.end
  %6 = load i16, ptr %fUnion2.i, align 8
  %cmp.i.i = icmp slt i16 %6, 0
  %7 = ashr i16 %6, 5
  %shr.i.i = sext i16 %7 to i32
  %fLength.i = getelementptr inbounds i8, ptr %rules, i64 12
  %8 = load i32, ptr %fLength.i, align 4
  %cond.i = select i1 %cmp.i.i, i32 %8, i32 %shr.i.i
  br label %cleanup

cleanup:                                          ; preds = %if.else, %invoke.cont8
  %retval.0 = phi i32 [ %call9, %invoke.cont8 ], [ %cond.i, %if.else ]
  call void @_ZN6icu_7513UnicodeStringD1Ev(ptr noundef nonnull align 8 dereferenceable(64) %rules) #10
  ret i32 %retval.0

ehcleanup:                                        ; preds = %lpad7, %lpad
  %.pn = phi { ptr, i32 } [ %4, %lpad7 ], [ %2, %lpad ]
  call void @_ZN6icu_7513UnicodeStringD1Ev(ptr noundef nonnull align 8 dereferenceable(64) %rules) #10
  resume { ptr, i32 } %.pn
}